target datalayout = "e-m:e-p270:32:32-p271:32:32-p272:64:64-i64:64-i128:128-f80:128-n8:16:32:64-S128"
target triple = "x86_64-pc-linux-gnu"

%"class.glslang::TParseVersions" = type { ptr, i8, i32, ptr, i32, i32, %"struct.glslang::SpvVersion", ptr, %"class.glslang::TMap", %"class.glslang::TMap.0", %"class.glslang::TVector", i32, i32, ptr }
%"struct.glslang::SpvVersion" = type <{ i32, i32, i32, i32, i8, [3 x i8] }>
%"class.glslang::TMap" = type { %"class.std::map" }
%"class.std::map" = type { %"class.std::_Rb_tree" }
%"class.std::_Rb_tree" = type { %"struct.std::_Rb_tree<std::__cxx11::basic_string<char, std::char_traits<char>, glslang::pool_allocator<char>>, std::pair<const std::__cxx11::basic_string<char, std::char_traits<char>, glslang::pool_allocator<char>>, glslang::TExtensionBehavior>, std::_Select1st<std::pair<const std::__cxx11::basic_string<char, std::char_traits<char>, glslang::pool_allocator<char>>, glslang::TExtensionBehavior>>, std::less<std::__cxx11::basic_string<char, std::char_traits<char>, glslang::pool_allocator<char>>>, glslang::pool_allocator<std::pair<const std::__cxx11::basic_string<char, std::char_traits<char>, glslang::pool_allocator<char>>, glslang::TExtensionBehavior>>>::_Rb_tree_impl" }
%"struct.std::_Rb_tree<std::__cxx11::basic_string<char, std::char_traits<char>, glslang::pool_allocator<char>>, std::pair<const std::__cxx11::basic_string<char, std::char_traits<char>, glslang::pool_allocator<char>>, glslang::TExtensionBehavior>, std::_Select1st<std::pair<const std::__cxx11::basic_string<char, std::char_traits<char>, glslang::pool_allocator<char>>, glslang::TExtensionBehavior>>, std::less<std::__cxx11::basic_string<char, std::char_traits<char>, glslang::pool_allocator<char>>>, glslang::pool_allocator<std::pair<const std::__cxx11::basic_string<char, std::char_traits<char>, glslang::pool_allocator<char>>, glslang::TExtensionBehavior>>>::_Rb_tree_impl" = type { %"class.glslang::pool_allocator", %"struct.std::_Rb_tree_key_compare", %"struct.std::_Rb_tree_header" }
%"class.glslang::pool_allocator" = type { ptr }
%"struct.std::_Rb_tree_key_compare" = type { %"struct.std::less" }
%"struct.std::less" = type { i8 }
%"struct.std::_Rb_tree_header" = type { %"struct.std::_Rb_tree_node_base", i64 }
%"struct.std::_Rb_tree_node_base" = type { i32, ptr, ptr, ptr }
%"class.glslang::TMap.0" = type { %"class.std::map.1" }
%"class.std::map.1" = type { %"class.std::_Rb_tree.2" }
%"class.std::_Rb_tree.2" = type { %"struct.std::_Rb_tree<std::__cxx11::basic_string<char, std::char_traits<char>, glslang::pool_allocator<char>>, std::pair<const std::__cxx11::basic_string<char, std::char_traits<char>, glslang::pool_allocator<char>>, unsigned int>, std::_Select1st<std::pair<const std::__cxx11::basic_string<char, std::char_traits<char>, glslang::pool_allocator<char>>, unsigned int>>, std::less<std::__cxx11::basic_string<char, std::char_traits<char>, glslang::pool_allocator<char>>>, glslang::pool_allocator<std::pair<const std::__cxx11::basic_string<char, std::char_traits<char>, glslang::pool_allocator<char>>, unsigned int>>>::_Rb_tree_impl" }
%"struct.std::_Rb_tree<std::__cxx11::basic_string<char, std::char_traits<char>, glslang::pool_allocator<char>>, std::pair<const std::__cxx11::basic_string<char, std::char_traits<char>, glslang::pool_allocator<char>>, unsigned int>, std::_Select1st<std::pair<const std::__cxx11::basic_string<char, std::char_traits<char>, glslang::pool_allocator<char>>, unsigned int>>, std::less<std::__cxx11::basic_string<char, std::char_traits<char>, glslang::pool_allocator<char>>>, glslang::pool_allocator<std::pair<const std::__cxx11::basic_string<char, std::char_traits<char>, glslang::pool_allocator<char>>, unsigned int>>>::_Rb_tree_impl" = type { %"class.glslang::pool_allocator.3", %"struct.std::_Rb_tree_key_compare", %"struct.std::_Rb_tree_header" }
%"class.glslang::pool_allocator.3" = type { ptr }
%"class.glslang::TVector" = type { %"class.std::vector" }
%"class.std::vector" = type { %"struct.std::_Vector_base" }
%"struct.std::_Vector_base" = type { %"struct.std::_Vector_base<std::__cxx11::basic_string<char, std::char_traits<char>, glslang::pool_allocator<char>>, glslang::pool_allocator<std::__cxx11::basic_string<char, std::char_traits<char>, glslang::pool_allocator<char>>>>::_Vector_impl" }
%"struct.std::_Vector_base<std::__cxx11::basic_string<char, std::char_traits<char>, glslang::pool_allocator<char>>, glslang::pool_allocator<std::__cxx11::basic_string<char, std::char_traits<char>, glslang::pool_allocator<char>>>>::_Vector_impl" = type { %"class.glslang::pool_allocator.4", %"struct.std::_Vector_base<std::__cxx11::basic_string<char, std::char_traits<char>, glslang::pool_allocator<char>>, glslang::pool_allocator<std::__cxx11::basic_string<char, std::char_traits<char>, glslang::pool_allocator<char>>>>::_Vector_impl_data" }
%"class.glslang::pool_allocator.4" = type { ptr }
%"struct.std::_Vector_base<std::__cxx11::basic_string<char, std::char_traits<char>, glslang::pool_allocator<char>>, glslang::pool_allocator<std::__cxx11::basic_string<char, std::char_traits<char>, glslang::pool_allocator<char>>>>::_Vector_impl_data" = type { ptr, ptr, ptr }
%class.TInfoSink = type { %"class.glslang::TInfoSinkBase", %"class.glslang::TInfoSinkBase" }
%"class.glslang::TInfoSinkBase" = type { %"class.std::__cxx11::basic_string.6", i32, ptr }
%"class.std::__cxx11::basic_string.6" = type { %"struct.std::__cxx11::basic_string<char>::_Alloc_hider", i64, %union.anon.7 }
%"struct.std::__cxx11::basic_string<char>::_Alloc_hider" = type { ptr }
%union.anon.7 = type { i64, [8 x i8] }

@.str.204 = private unnamed_addr constant [2 x i8] c"\0A\00", align 1
@.str.248 = private unnamed_addr constant [34 x i8] c"required extension not requested:\00", align 1
@.str.249 = private unnamed_addr constant [29 x i8] c"Possible extensions include:\00", align 1
@.str.276 = private unnamed_addr constant [10 x i8] c"WARNING: \00", align 1
@.str.277 = private unnamed_addr constant [8 x i8] c"ERROR: \00", align 1
@.str.278 = private unnamed_addr constant [17 x i8] c"INTERNAL ERROR: \00", align 1
@.str.279 = private unnamed_addr constant [16 x i8] c"UNIMPLEMENTED: \00", align 1
@.str.280 = private unnamed_addr constant [7 x i8] c"NOTE: \00", align 1
@.str.281 = private unnamed_addr constant [16 x i8] c"UNKNOWN ERROR: \00", align 1

; Function Attrs: mustprogress nounwind uwtable
define linkonce_odr void @_ZN7glslang13TInfoSinkBase6prefixENS_11TPrefixTypeE(ptr noundef nonnull align 8 dereferenceable(48) %0, i32 noundef %1) #0 comdat align 2 {
  %3 = alloca ptr, align 8
  %4 = alloca i32, align 4
  store ptr %0, ptr %3, align 8
  store i32 %1, ptr %4, align 4
  %5 = load ptr, ptr %3, align 8
  %6 = load i32, ptr %4, align 4
  switch i32 %6, label %13 [
    i32 0, label %7
    i32 1, label %8
    i32 2, label %9
    i32 3, label %10
    i32 4, label %11
    i32 5, label %12
  ]

7:                                                ; preds = %2
  br label %14

8:                                                ; preds = %2
  call void @_ZN7glslang13TInfoSinkBase6appendEPKc(ptr noundef nonnull align 8 dereferenceable(48) %5, ptr noundef @.str.276)
  br label %14

9:                                                ; preds = %2
  call void @_ZN7glslang13TInfoSinkBase6appendEPKc(ptr noundef nonnull align 8 dereferenceable(48) %5, ptr noundef @.str.277)
  br label %14

10:                                               ; preds = %2
  call void @_ZN7glslang13TInfoSinkBase6appendEPKc(ptr noundef nonnull align 8 dereferenceable(48) %5, ptr noundef @.str.278)
  br label %14

11:                                               ; preds = %2
  call void @_ZN7glslang13TInfoSinkBase6appendEPKc(ptr noundef nonnull align 8 dereferenceable(48) %5, ptr noundef @.str.279)
  br label %14

12:                                               ; preds = %2
  call void @_ZN7glslang13TInfoSinkBase6appendEPKc(ptr noundef nonnull align 8 dereferenceable(48) %5, ptr noundef @.str.280)
  br label %14

13:                                               ; preds = %2
  call void @_ZN7glslang13TInfoSinkBase6appendEPKc(ptr noundef nonnull align 8 dereferenceable(48) %5, ptr noundef @.str.281)
  br label %14

14:                                               ; preds = %13, %12, %11, %10, %9, %8, %7
  ret void
}

; Function Attrs: mustprogress nounwind uwtable
define linkonce_odr void @_ZN7glslang13TInfoSinkBase7messageENS_11TPrefixTypeEPKc(ptr noundef nonnull align 8 dereferenceable(48) %0, i32 noundef %1, ptr noundef %2) #0 comdat align 2 {
  %4 = alloca ptr, align 8
  %5 = alloca i32, align 4
  %6 = alloca ptr, align 8
  store ptr %0, ptr %4, align 8
  store i32 %1, ptr %5, align 4
  store ptr %2, ptr %6, align 8
  %7 = load ptr, ptr %4, align 8
  %8 = load i32, ptr %5, align 4
  call void @_ZN7glslang13TInfoSinkBase6prefixENS_11TPrefixTypeE(ptr noundef nonnull align 8 dereferenceable(48) %7, i32 noundef %8)
  %9 = load ptr, ptr %6, align 8
  call void @_ZN7glslang13TInfoSinkBase6appendEPKc(ptr noundef nonnull align 8 dereferenceable(48) %7, ptr noundef %9)
  call void @_ZN7glslang13TInfoSinkBase6appendEPKc(ptr noundef nonnull align 8 dereferenceable(48) %7, ptr noundef @.str.204)
  ret void
}

; Function Attrs: mustprogress nounwind uwtable
define void @_ZN7glslang14TParseVersions19ppRequireExtensionsERKNS_10TSourceLocEiPKPKcS5_(ptr noundef nonnull align 8 dereferenceable(224) %0, ptr noundef nonnull align 8 dereferenceable(24) %1, i32 noundef %2, ptr noundef %3, ptr noundef %4) unnamed_addr #0 align 2 {
  %6 = alloca ptr, align 8
  %7 = alloca ptr, align 8
  %8 = alloca i32, align 4
  %9 = alloca ptr, align 8
  %10 = alloca ptr, align 8
  %11 = alloca i32, align 4
  store ptr %0, ptr %6, align 8
  store ptr %1, ptr %7, align 8
  store i32 %2, ptr %8, align 4
  store ptr %3, ptr %9, align 8
  store ptr %4, ptr %10, align 8
  %12 = load ptr, ptr %6, align 8
  %13 = load ptr, ptr %7, align 8
  %14 = load i32, ptr %8, align 4
  %15 = load ptr, ptr %9, align 8
  %16 = load ptr, ptr %10, align 8
  %17 = load ptr, ptr %12, align 8
  %18 = getelementptr inbounds ptr, ptr %17, i64 12
  %19 = load ptr, ptr %18, align 8
  %20 = call noundef zeroext i1 %19(ptr noundef nonnull align 8 dereferenceable(224) %12, ptr noundef nonnull align 8 dereferenceable(24) %13, i32 noundef %14, ptr noundef %15, ptr noundef %16)
  br i1 %20, label %21, label %22

21:                                               ; preds = %5
  br label %57

22:                                               ; preds = %5
  %23 = load i32, ptr %8, align 4
  %24 = icmp eq i32 %23, 1
  br i1 %24, label %25, label %34

25:                                               ; preds = %22
  %26 = load ptr, ptr %7, align 8
  %27 = load ptr, ptr %10, align 8
  %28 = load ptr, ptr %9, align 8
  %29 = getelementptr inbounds ptr, ptr %28, i64 0
  %30 = load ptr, ptr %29, align 8
  %31 = load ptr, ptr %12, align 8
  %32 = getelementptr inbounds ptr, ptr %31, i64 45
  %33 = load ptr, ptr %32, align 8
  call void (ptr, ptr, ptr, ptr, ptr, ...) %33(ptr noundef nonnull align 8 dereferenceable(224) %12, ptr noundef nonnull align 8 dereferenceable(24) %26, ptr noundef @.str.248, ptr noundef %27, ptr noundef %30)
  br label %57

34:                                               ; preds = %22
  %35 = load ptr, ptr %7, align 8
  %36 = load ptr, ptr %10, align 8
  %37 = load ptr, ptr %12, align 8
  %38 = getelementptr inbounds ptr, ptr %37, i64 45
  %39 = load ptr, ptr %38, align 8
  call void (ptr, ptr, ptr, ptr, ptr, ...) %39(ptr noundef nonnull align 8 dereferenceable(224) %12, ptr noundef nonnull align 8 dereferenceable(24) %35, ptr noundef @.str.248, ptr noundef %36, ptr noundef @.str.249)
  store i32 0, ptr %11, align 4
  br label %40

40:                                               ; preds = %53, %34
  %41 = load i32, ptr %11, align 4
  %42 = load i32, ptr %8, align 4
  %43 = icmp slt i32 %41, %42
  br i1 %43, label %44, label %56

44:                                               ; preds = %40
  %45 = getelementptr inbounds %"class.glslang::TParseVersions", ptr %12, i32 0, i32 3
  %46 = load ptr, ptr %45, align 8
  %47 = getelementptr inbounds %class.TInfoSink, ptr %46, i32 0, i32 0
  %48 = load ptr, ptr %9, align 8
  %49 = load i32, ptr %11, align 4
  %50 = sext i32 %49 to i64
  %51 = getelementptr inbounds ptr, ptr %48, i64 %50
  %52 = load ptr, ptr %51, align 8
  call void @_ZN7glslang13TInfoSinkBase7messageENS_11TPrefixTypeEPKc(ptr noundef nonnull align 8 dereferenceable(48) %47, i32 noundef 0, ptr noundef %52)
  br label %53

53:                                               ; preds = %44
  %54 = load i32, ptr %11, align 4
  %55 = add nsw i32 %54, 1
  store i32 %55, ptr %11, align 4
  br label %40, !llvm.loop !10

56:                                               ; preds = %40
  br label %57

57:                                               ; preds = %56, %25, %21
  ret void
}