; Function Attrs: mustprogress nounwind uwtable
define void @_ZN7glslang14TParseVersions19ppRequireExtensionsERKNS_10TSourceLocEiPKPKcS5_(ptr noundef nonnull align 8 dereferenceable(224) %0, ptr noundef nonnull align 8 dereferenceable(24) %1, i32 noundef %2, ptr noundef %3, ptr noundef %4) unnamed_addr #0 align 2 {
  %6 = load ptr, ptr %0, align 8
  %7 = getelementptr inbounds i8, ptr %6, i64 96
  %8 = load ptr, ptr %7, align 8
  %9 = tail call noundef zeroext i1 %8(ptr noundef nonnull align 8 dereferenceable(224) %0, ptr noundef nonnull align 8 dereferenceable(24) %1, i32 noundef %2, ptr noundef %3, ptr noundef %4) #15
  br i1 %9, label %.loopexit, label %10

10:                                               ; preds = %5
  %11 = icmp eq i32 %2, 1
  br i1 %11, label %12, label %17

12:                                               ; preds = %10
  %13 = load ptr, ptr %3, align 8
  %14 = load ptr, ptr %0, align 8
  %15 = getelementptr inbounds i8, ptr %14, i64 360
  %16 = load ptr, ptr %15, align 8
  tail call void (ptr, ptr, ptr, ptr, ptr, ...) %16(ptr noundef nonnull align 8 dereferenceable(224) %0, ptr noundef nonnull align 8 dereferenceable(24) %1, ptr noundef nonnull @.str.248, ptr noundef %4, ptr noundef %13) #15
  br label %.loopexit

17:                                               ; preds = %10
  %18 = load ptr, ptr %0, align 8
  %19 = getelementptr inbounds i8, ptr %18, i64 360
  %20 = load ptr, ptr %19, align 8
  tail call void (ptr, ptr, ptr, ptr, ptr, ...) %20(ptr noundef nonnull align 8 dereferenceable(224) %0, ptr noundef nonnull align 8 dereferenceable(24) %1, ptr noundef nonnull @.str.248, ptr noundef %4, ptr noundef nonnull @.str.249) #15
  %21 = icmp sgt i32 %2, 0
  br i1 %21, label %.lr.ph, label %.loopexit

.lr.ph:                                           ; preds = %17
  %22 = getelementptr inbounds i8, ptr %0, i64 16
  %wide.trip.count = zext nneg i32 %2 to i64
  br label %23

23:                                               ; preds = %.lr.ph, %23
  %indvars.iv = phi i64 [ 0, %.lr.ph ], [ %indvars.iv.next, %23 ]
  %24 = load ptr, ptr %22, align 8
  %25 = getelementptr inbounds ptr, ptr %3, i64 %indvars.iv
  %26 = load ptr, ptr %25, align 8
  tail call void @_ZN7glslang13TInfoSinkBase6appendEPKc(ptr noundef nonnull align 8 dereferenceable(48) %24, ptr noundef %26) #15
  tail call void @_ZN7glslang13TInfoSinkBase6appendEPKc(ptr noundef nonnull align 8 dereferenceable(48) %24, ptr noundef nonnull @.str.204) #15
  %indvars.iv.next = add nuw nsw i64 %indvars.iv, 1
  %exitcond.not = icmp eq i64 %indvars.iv.next, %wide.trip.count
  br i1 %exitcond.not, label %.loopexit, label %23, !llvm.loop !30

.loopexit:                                        ; preds = %23, %17, %5, %12
  ret void
}